; ModuleID = 'source-C-CXX/60/1133.c'
source_filename = "source-C-CXX/60/1133.c"
target datalayout = "e-m:e-p270:32:32-p271:32:32-p272:64:64-i64:64-f80:128-n8:16:32:64-S128"
target triple = "x86_64-pc-linux-gnu"

@.str = private unnamed_addr constant [3 x i8] c"%d\00", align 1
@.str.1 = private unnamed_addr constant [4 x i8] c"\0A%d\00", align 1

; Function Attrs: nofree nounwind sspstrong uwtable
define dso_local i32 @main() local_unnamed_addr #0 {
  %1 = alloca i32, align 4
  %2 = alloca [20 x i32], align 16
  %3 = bitcast i32* %1 to i8*
  call void @llvm.lifetime.start.p0i8(i64 4, i8* nonnull %3) #4
  %4 = call i32 (i8*, ...) @__isoc99_scanf(i8* getelementptr inbounds ([3 x i8], [3 x i8]* @.str, i64 0, i64 0), i32* nonnull %1)
  %5 = load i32, i32* %1, align 4, !tbaa !5
  %6 = zext i32 %5 to i64
  %7 = call i8* @llvm.stacksave()
  %8 = alloca i32, i64 %6, align 16
  %9 = load i32, i32* %1, align 4, !tbaa !5
  %10 = icmp sgt i32 %9, 0
  br i1 %10, label %11, label %19

11:                                               ; preds = %0, %11
  %12 = phi i64 [ %15, %11 ], [ 0, %0 ]
  %13 = getelementptr inbounds i32, i32* %8, i64 %12
  %14 = call i32 (i8*, ...) @__isoc99_scanf(i8* getelementptr inbounds ([4 x i8], [4 x i8]* @.str.1, i64 0, i64 0), i32* nonnull %13)
  %15 = add nuw nsw i64 %12, 1
  %16 = load i32, i32* %1, align 4, !tbaa !5
  %17 = sext i32 %16 to i64
  %18 = icmp slt i64 %15, %17
  br i1 %18, label %11, label %19, !llvm.loop !9

19:                                               ; preds = %11, %0
  %20 = phi i32 [ %9, %0 ], [ %16, %11 ]
  %21 = bitcast [20 x i32]* %2 to i8*
  call void @llvm.lifetime.start.p0i8(i64 80, i8* nonnull %21) #4
  %22 = bitcast [20 x i32]* %2 to <4 x i32>*
  store <4 x i32> <i32 1, i32 1, i32 2, i32 3>, <4 x i32>* %22, align 16, !tbaa !5
  %23 = getelementptr inbounds [20 x i32], [20 x i32]* %2, i64 0, i64 4
  %24 = bitcast i32* %23 to <4 x i32>*
  store <4 x i32> <i32 5, i32 8, i32 13, i32 21>, <4 x i32>* %24, align 16, !tbaa !5
  %25 = getelementptr inbounds [20 x i32], [20 x i32]* %2, i64 0, i64 8
  %26 = bitcast i32* %25 to <4 x i32>*
  store <4 x i32> <i32 34, i32 55, i32 89, i32 144>, <4 x i32>* %26, align 16, !tbaa !5
  %27 = getelementptr inbounds [20 x i32], [20 x i32]* %2, i64 0, i64 12
  %28 = bitcast i32* %27 to <4 x i32>*
  store <4 x i32> <i32 233, i32 377, i32 610, i32 987>, <4 x i32>* %28, align 16, !tbaa !5
  %29 = getelementptr inbounds [20 x i32], [20 x i32]* %2, i64 0, i64 16
  %30 = bitcast i32* %29 to <4 x i32>*
  store <4 x i32> <i32 1597, i32 2584, i32 4181, i32 6765>, <4 x i32>* %30, align 16, !tbaa !5
  %31 = icmp sgt i32 %20, 0
  br i1 %31, label %32, label %67

32:                                               ; preds = %19
  %33 = zext i32 %20 to i64
  %34 = and i64 %33, 1
  %35 = icmp eq i32 %20, 1
  br i1 %35, label %57, label %36

36:                                               ; preds = %32
  %37 = and i64 %33, 4294967294
  br label %38

38:                                               ; preds = %38, %36
  %39 = phi i64 [ 0, %36 ], [ %54, %38 ]
  %40 = phi i64 [ %37, %36 ], [ %55, %38 ]
  %41 = getelementptr inbounds i32, i32* %8, i64 %39
  %42 = load i32, i32* %41, align 8, !tbaa !5
  %43 = add nsw i32 %42, -1
  %44 = sext i32 %43 to i64
  %45 = getelementptr inbounds [20 x i32], [20 x i32]* %2, i64 0, i64 %44
  %46 = load i32, i32* %45, align 4, !tbaa !5
  store i32 %46, i32* %41, align 8, !tbaa !5
  %47 = or i64 %39, 1
  %48 = getelementptr inbounds i32, i32* %8, i64 %47
  %49 = load i32, i32* %48, align 4, !tbaa !5
  %50 = add nsw i32 %49, -1
  %51 = sext i32 %50 to i64
  %52 = getelementptr inbounds [20 x i32], [20 x i32]* %2, i64 0, i64 %51
  %53 = load i32, i32* %52, align 4, !tbaa !5
  store i32 %53, i32* %48, align 4, !tbaa !5
  %54 = add nuw nsw i64 %39, 2
  %55 = add i64 %40, -2
  %56 = icmp eq i64 %55, 0
  br i1 %56, label %57, label %38, !llvm.loop !11

57:                                               ; preds = %38, %32
  %58 = phi i64 [ 0, %32 ], [ %54, %38 ]
  %59 = icmp eq i64 %34, 0
  br i1 %59, label %67, label %60

60:                                               ; preds = %57
  %61 = getelementptr inbounds i32, i32* %8, i64 %58
  %62 = load i32, i32* %61, align 4, !tbaa !5
  %63 = add nsw i32 %62, -1
  %64 = sext i32 %63 to i64
  %65 = getelementptr inbounds [20 x i32], [20 x i32]* %2, i64 0, i64 %64
  %66 = load i32, i32* %65, align 4, !tbaa !5
  store i32 %66, i32* %61, align 4, !tbaa !5
  br label %67

67:                                               ; preds = %60, %57, %19
  %68 = load i32, i32* %8, align 16, !tbaa !5
  %69 = call i32 (i8*, ...) @printf(i8* nonnull dereferenceable(1) getelementptr inbounds ([3 x i8], [3 x i8]* @.str, i64 0, i64 0), i32 %68)
  %70 = load i32, i32* %1, align 4, !tbaa !5
  %71 = icmp sgt i32 %70, 1
  br i1 %71, label %72, label %81

72:                                               ; preds = %67, %72
  %73 = phi i64 [ %77, %72 ], [ 1, %67 ]
  %74 = getelementptr inbounds i32, i32* %8, i64 %73
  %75 = load i32, i32* %74, align 4, !tbaa !5
  %76 = call i32 (i8*, ...) @printf(i8* nonnull dereferenceable(1) getelementptr inbounds ([4 x i8], [4 x i8]* @.str.1, i64 0, i64 0), i32 %75)
  %77 = add nuw nsw i64 %73, 1
  %78 = load i32, i32* %1, align 4, !tbaa !5
  %79 = sext i32 %78 to i64
  %80 = icmp slt i64 %77, %79
  br i1 %80, label %72, label %81, !llvm.loop !12

81:                                               ; preds = %72, %67
  call void @llvm.lifetime.end.p0i8(i64 80, i8* nonnull %21) #4
  call void @llvm.stackrestore(i8* %7)
  call void @llvm.lifetime.end.p0i8(i64 4, i8* nonnull %3) #4
  ret i32 0
}

; Function Attrs: argmemonly mustprogress nofree nosync nounwind willreturn
declare void @llvm.lifetime.start.p0i8(i64 immarg, i8* nocapture) #1

; Function Attrs: nofree nounwind
declare noundef i32 @__isoc99_scanf(i8* nocapture noundef readonly, ...) local_unnamed_addr #2

; Function Attrs: mustprogress nofree nosync nounwind willreturn
declare i8* @llvm.stacksave() #3

; Function Attrs: nofree nounwind
declare noundef i32 @printf(i8* nocapture noundef readonly, ...) local_unnamed_addr #2

; Function Attrs: argmemonly mustprogress nofree nosync nounwind willreturn
declare void @llvm.lifetime.end.p0i8(i64 immarg, i8* nocapture) #1

; Function Attrs: mustprogress nofree nosync nounwind willreturn
declare void @llvm.stackrestore(i8*) #3


!llvm.module.flags = !{!0, !1, !2, !3}
!llvm.ident = !{!4}

!0 = !{i32 1, !"wchar_size", i32 4}
!1 = !{i32 7, !"PIC Level", i32 2}
!2 = !{i32 7, !"PIE Level", i32 2}
!3 = !{i32 7, !"uwtable", i32 1}
!4 = !{!"clang version 13.0.0"}
!5 = !{!6, !6, i64 0}
!6 = !{!"int", !7, i64 0}
!7 = !{!"omnipotent char", !8, i64 0}
!8 = !{!"Simple C/C++ TBAA"}
!9 = distinct !{!9, !10}
!10 = !{!"llvm.loop.mustprogress"}
!11 = distinct !{!11, !10}
!12 = distinct !{!12, !10}
